target datalayout = "e-m:e-p270:32:32-p271:32:32-p272:64:64-i64:64-i128:128-f80:128-n8:16:32:64-S128"
target triple = "x86_64-pc-linux-gnu"

%struct.evthread_lock_callbacks = type { i32, i32, ptr, ptr, ptr, ptr }
%struct.event = type { %struct.event_callback, %union.anon.0, i32, i16, i16, ptr, %union.anon.2, %struct.timeval }
%struct.event_callback = type { %struct.anon, i16, i8, i8, %union.anon, ptr }
%struct.anon = type { ptr, ptr }
%union.anon = type { ptr }
%union.anon.0 = type { %struct.anon.1 }
%struct.anon.1 = type { ptr, ptr }
%union.anon.2 = type { %struct.anon.3 }
%struct.anon.3 = type { %struct.anon.4, %struct.timeval }
%struct.anon.4 = type { ptr, ptr }
%struct.timeval = type { i64, i64 }
%struct.sockaddr_storage = type { i16, [118 x i8], i64 }
%struct.evdns_base = type { ptr, ptr, ptr, i32, ptr, i32, i32, i32, i32, %struct.timeval, i32, i32, i32, i32, i16, %struct.timeval, i16, %struct.timeval, %struct.sockaddr_storage, i32, %struct.timeval, i32, i32, i32, i32, i32, i32, ptr, %struct.hosts_list, %struct.evdns_tree, ptr, i32, i32, i32, i32 }
%struct.hosts_list = type { ptr, ptr }
%struct.evdns_tree = type { ptr }
%struct.nameserver = type { i32, ptr, %struct.sockaddr_storage, i32, i32, i32, %struct.event, ptr, ptr, %struct.event, ptr, i8, i8, i8, ptr, i32 }

@evthread_lock_fns_ = external global %struct.evthread_lock_callbacks, align 8

; Function Attrs: nounwind uwtable
define i32 @evdns_base_get_nameserver_addr(ptr noundef %0, i32 noundef %1, ptr noundef %2, i32 noundef %3) #0 {
  %5 = alloca ptr, align 8
  %6 = alloca i32, align 4
  %7 = alloca ptr, align 8
  %8 = alloca i32, align 4
  %9 = alloca i32, align 4
  %10 = alloca i32, align 4
  %11 = alloca ptr, align 8
  store ptr %0, ptr %5, align 8
  store i32 %1, ptr %6, align 4
  store ptr %2, ptr %7, align 8
  store i32 %3, ptr %8, align 4
  call void @llvm.lifetime.start.p0(i64 4, ptr %9) #10
  store i32 -1, ptr %9, align 4
  call void @llvm.lifetime.start.p0(i64 4, ptr %10) #10
  call void @llvm.lifetime.start.p0(i64 8, ptr %11) #10
  br label %12

12:                                               ; preds = %4
  %13 = load ptr, ptr %5, align 8
  %14 = getelementptr inbounds nuw %struct.evdns_base, ptr %13, i32 0, i32 30
  %15 = load ptr, ptr %14, align 8
  %16 = icmp ne ptr %15, null
  br i1 %16, label %17, label %23

17:                                               ; preds = %12
  %18 = load ptr, ptr getelementptr inbounds nuw (%struct.evthread_lock_callbacks, ptr @evthread_lock_fns_, i32 0, i32 4), align 8
  %19 = load ptr, ptr %5, align 8
  %20 = getelementptr inbounds nuw %struct.evdns_base, ptr %19, i32 0, i32 30
  %21 = load ptr, ptr %20, align 8
  %22 = call i32 %18(i32 noundef 0, ptr noundef %21)
  br label %23

23:                                               ; preds = %17, %12
  br label %24

24:                                               ; preds = %23
  br label %25

25:                                               ; preds = %24
  %26 = load ptr, ptr %5, align 8
  %27 = getelementptr inbounds nuw %struct.evdns_base, ptr %26, i32 0, i32 2
  %28 = load ptr, ptr %27, align 8
  store ptr %28, ptr %11, align 8
  store i32 0, ptr %10, align 4
  br label %29

29:                                               ; preds = %48, %25
  %30 = load i32, ptr %10, align 4
  %31 = load i32, ptr %6, align 4
  %32 = icmp slt i32 %30, %31
  br i1 %32, label %33, label %36

33:                                               ; preds = %29
  %34 = load ptr, ptr %11, align 8
  %35 = icmp ne ptr %34, null
  br label %36

36:                                               ; preds = %33, %29
  %37 = phi i1 [ false, %29 ], [ %35, %33 ]
  br i1 %37, label %38, label %54

38:                                               ; preds = %36
  %39 = load ptr, ptr %11, align 8
  %40 = getelementptr inbounds nuw %struct.nameserver, ptr %39, i32 0, i32 7
  %41 = load ptr, ptr %40, align 8
  %42 = load ptr, ptr %5, align 8
  %43 = getelementptr inbounds nuw %struct.evdns_base, ptr %42, i32 0, i32 2
  %44 = load ptr, ptr %43, align 8
  %45 = icmp eq ptr %41, %44
  br i1 %45, label %46, label %47

46:                                               ; preds = %38
  br label %79

47:                                               ; preds = %38
  br label %48

48:                                               ; preds = %47
  %49 = load i32, ptr %10, align 4
  %50 = add nsw i32 %49, 1
  store i32 %50, ptr %10, align 4
  %51 = load ptr, ptr %11, align 8
  %52 = getelementptr inbounds nuw %struct.nameserver, ptr %51, i32 0, i32 7
  %53 = load ptr, ptr %52, align 8
  store ptr %53, ptr %11, align 8
  br label %29, !llvm.loop !16

54:                                               ; preds = %36
  %55 = load ptr, ptr %11, align 8
  %56 = icmp ne ptr %55, null
  br i1 %56, label %58, label %57

57:                                               ; preds = %54
  br label %79

58:                                               ; preds = %54
  %59 = load ptr, ptr %11, align 8
  %60 = getelementptr inbounds nuw %struct.nameserver, ptr %59, i32 0, i32 3
  %61 = load i32, ptr %60, align 8
  %62 = load i32, ptr %8, align 4
  %63 = icmp ugt i32 %61, %62
  br i1 %63, label %64, label %68

64:                                               ; preds = %58
  %65 = load ptr, ptr %11, align 8
  %66 = getelementptr inbounds nuw %struct.nameserver, ptr %65, i32 0, i32 3
  %67 = load i32, ptr %66, align 8
  store i32 %67, ptr %9, align 4
  br label %79

68:                                               ; preds = %58
  %69 = load ptr, ptr %7, align 8
  %70 = load ptr, ptr %11, align 8
  %71 = getelementptr inbounds nuw %struct.nameserver, ptr %70, i32 0, i32 2
  %72 = load ptr, ptr %11, align 8
  %73 = getelementptr inbounds nuw %struct.nameserver, ptr %72, i32 0, i32 3
  %74 = load i32, ptr %73, align 8
  %75 = zext i32 %74 to i64
  call void @llvm.memcpy.p0.p0.i64(ptr align 2 %69, ptr align 8 %71, i64 %75, i1 false)
  %76 = load ptr, ptr %11, align 8
  %77 = getelementptr inbounds nuw %struct.nameserver, ptr %76, i32 0, i32 3
  %78 = load i32, ptr %77, align 8
  store i32 %78, ptr %9, align 4
  br label %79

79:                                               ; preds = %68, %64, %57, %46
  br label %80

80:                                               ; preds = %79
  %81 = load ptr, ptr %5, align 8
  %82 = getelementptr inbounds nuw %struct.evdns_base, ptr %81, i32 0, i32 30
  %83 = load ptr, ptr %82, align 8
  %84 = icmp ne ptr %83, null
  br i1 %84, label %85, label %91

85:                                               ; preds = %80
  %86 = load ptr, ptr getelementptr inbounds nuw (%struct.evthread_lock_callbacks, ptr @evthread_lock_fns_, i32 0, i32 5), align 8
  %87 = load ptr, ptr %5, align 8
  %88 = getelementptr inbounds nuw %struct.evdns_base, ptr %87, i32 0, i32 30
  %89 = load ptr, ptr %88, align 8
  %90 = call i32 %86(i32 noundef 0, ptr noundef %89)
  br label %91

91:                                               ; preds = %85, %80
  br label %92

92:                                               ; preds = %91
  br label %93

93:                                               ; preds = %92
  %94 = load i32, ptr %9, align 4
  call void @llvm.lifetime.end.p0(i64 8, ptr %11) #10
  call void @llvm.lifetime.end.p0(i64 4, ptr %10) #10
  call void @llvm.lifetime.end.p0(i64 4, ptr %9) #10
  ret i32 %94
}