; Function Attrs: nounwind uwtable
define i32 @evdns_base_get_nameserver_addr(ptr noundef readonly captures(none) %0, i32 noundef %1, ptr noundef writeonly captures(none) %2, i32 noundef %3) local_unnamed_addr #2 {
  %5 = getelementptr inbounds nuw i8, ptr %0, i64 344
  %6 = load ptr, ptr %5, align 8
  %.not = icmp eq ptr %6, null
  br i1 %.not, label %10, label %7

7:                                                ; preds = %4
  %8 = load ptr, ptr getelementptr inbounds nuw (i8, ptr @evthread_lock_fns_, i64 24), align 8
  %9 = tail call i32 %8(i32 noundef 0, ptr noundef nonnull %6) #21
  br label %10

10:                                               ; preds = %7, %4
  %11 = getelementptr inbounds nuw i8, ptr %0, i64 16
  %12 = load ptr, ptr %11, align 8
  %13 = icmp sgt i32 %1, 0
  %14 = icmp ne ptr %12, null
  %15 = select i1 %13, i1 %14, i1 false
  br i1 %15, label %.lr.ph, label %._crit_edge

16:                                               ; preds = %.lr.ph
  %17 = add nuw nsw i32 %.02029, 1
  %18 = icmp slt i32 %17, %1
  %19 = icmp ne ptr %22, null
  %20 = and i1 %18, %19
  br i1 %20, label %.lr.ph, label %._crit_edge, !llvm.loop !20

.lr.ph:                                           ; preds = %10, %16
  %.030 = phi ptr [ %22, %16 ], [ %12, %10 ]
  %.02029 = phi i32 [ %17, %16 ], [ 0, %10 ]
  %21 = getelementptr inbounds nuw i8, ptr %.030, i64 280
  %22 = load ptr, ptr %21, align 8
  %23 = icmp eq ptr %22, %12
  br i1 %23, label %.loopexit, label %16

._crit_edge:                                      ; preds = %16, %10
  %.0.lcssa = phi ptr [ %12, %10 ], [ %22, %16 ]
  %.lcssa = phi i1 [ %14, %10 ], [ %19, %16 ]
  br i1 %.lcssa, label %24, label %.loopexit

24:                                               ; preds = %._crit_edge
  %25 = getelementptr inbounds nuw i8, ptr %.0.lcssa, i64 144
  %26 = load i32, ptr %25, align 8
  %27 = icmp ugt i32 %26, %3
  br i1 %27, label %.loopexit, label %28

28:                                               ; preds = %24
  %29 = getelementptr inbounds nuw i8, ptr %.0.lcssa, i64 16
  %30 = zext i32 %26 to i64
  tail call void @llvm.memcpy.p0.p0.i64(ptr align 2 %2, ptr nonnull align 8 %29, i64 %30, i1 false)
  %31 = load i32, ptr %25, align 8
  br label %.loopexit

.loopexit:                                        ; preds = %.lr.ph, %24, %28, %._crit_edge
  %.021 = phi i32 [ %31, %28 ], [ -1, %._crit_edge ], [ %26, %24 ], [ -1, %.lr.ph ]
  %32 = load ptr, ptr %5, align 8
  %.not26 = icmp eq ptr %32, null
  br i1 %.not26, label %36, label %33

33:                                               ; preds = %.loopexit
  %34 = load ptr, ptr getelementptr inbounds nuw (i8, ptr @evthread_lock_fns_, i64 32), align 8
  %35 = tail call i32 %34(i32 noundef 0, ptr noundef nonnull %32) #21
  br label %36

36:                                               ; preds = %33, %.loopexit
  ret i32 %.021
}